target datalayout = "e-m:e-p270:32:32-p271:32:32-p272:64:64-i64:64-i128:128-f80:128-n8:16:32:64-S128"
target triple = "x86_64-pc-linux-gnu"

%"class.std::__cxx11::basic_string" = type { %"struct.std::__cxx11::basic_string<char>::_Alloc_hider", i64, %union.anon }
%"struct.std::__cxx11::basic_string<char>::_Alloc_hider" = type { ptr }
%union.anon = type { i64, [8 x i8] }
%"class.base::FilePath" = type { %"class.std::__cxx11::basic_string" }

; Function Attrs: mustprogress uwtable
define noundef zeroext i1 @_ZN4base12SharedMemory6DeleteERKNSt7__cxx1112basic_stringIcSt11char_traitsIcESaIcEEE(ptr noundef nonnull align 8 dereferenceable(40) %0, ptr noundef nonnull align 8 dereferenceable(32) %1) #2 align 2 personality ptr @__gxx_personality_v0 {
  %3 = alloca i1, align 1
  %4 = alloca ptr, align 8
  %5 = alloca ptr, align 8
  %6 = alloca %"class.base::FilePath", align 8
  %7 = alloca ptr, align 8
  %8 = alloca i32, align 4
  %9 = alloca i32, align 4
  store ptr %0, ptr %4, align 8, !tbaa !17
  store ptr %1, ptr %5, align 8, !tbaa !38
  %10 = load ptr, ptr %4, align 8
  call void @llvm.lifetime.start.p0(i64 32, ptr %6) #16
  call void @_ZN4base8FilePathC1Ev(ptr noundef nonnull align 8 dereferenceable(32) %6)
  %11 = load ptr, ptr %5, align 8, !tbaa !38
  %12 = invoke noundef zeroext i1 @_ZN4base12SharedMemory21FilePathForMemoryNameERKNSt7__cxx1112basic_stringIcSt11char_traitsIcESaIcEEEPNS_8FilePathE(ptr noundef nonnull align 8 dereferenceable(40) %10, ptr noundef nonnull align 8 dereferenceable(32) %11, ptr noundef %6)
          to label %13 unwind label %15

13:                                               ; preds = %2
  br i1 %12, label %19, label %14

14:                                               ; preds = %13
  store i1 false, ptr %3, align 1
  store i32 1, ptr %9, align 4
  br label %26

15:                                               ; preds = %22, %19, %2
  %16 = landingpad { ptr, i32 }
          cleanup
  %17 = extractvalue { ptr, i32 } %16, 0
  store ptr %17, ptr %7, align 8
  %18 = extractvalue { ptr, i32 } %16, 1
  store i32 %18, ptr %8, align 4
  call void @_ZN4base8FilePathD1Ev(ptr noundef nonnull align 8 dereferenceable(32) %6) #16
  call void @llvm.lifetime.end.p0(i64 32, ptr %6) #16
  br label %28

19:                                               ; preds = %13
  %20 = invoke noundef zeroext i1 @_ZN4base10PathExistsERKNS_8FilePathE(ptr noundef nonnull align 8 dereferenceable(32) %6)
          to label %21 unwind label %15

21:                                               ; preds = %19
  br i1 %20, label %22, label %25

22:                                               ; preds = %21
  %23 = invoke noundef zeroext i1 @_ZN4base10DeleteFileERKNS_8FilePathEb(ptr noundef nonnull align 8 dereferenceable(32) %6, i1 noundef zeroext false)
          to label %24 unwind label %15

24:                                               ; preds = %22
  store i1 %23, ptr %3, align 1
  store i32 1, ptr %9, align 4
  br label %26

25:                                               ; preds = %21
  store i1 true, ptr %3, align 1
  store i32 1, ptr %9, align 4
  br label %26

26:                                               ; preds = %25, %24, %14
  call void @_ZN4base8FilePathD1Ev(ptr noundef nonnull align 8 dereferenceable(32) %6) #16
  call void @llvm.lifetime.end.p0(i64 32, ptr %6) #16
  %27 = load i1, ptr %3, align 1
  ret i1 %27

28:                                               ; preds = %15
  %29 = load ptr, ptr %7, align 8
  %30 = load i32, ptr %8, align 4
  %31 = insertvalue { ptr, i32 } poison, ptr %29, 0
  %32 = insertvalue { ptr, i32 } %31, i32 %30, 1
  resume { ptr, i32 } %32
}