; Function Attrs: mustprogress uwtable
define noundef zeroext i1 @_ZN4base12SharedMemory6DeleteERKNSt7__cxx1112basic_stringIcSt11char_traitsIcESaIcEEE(ptr noundef nonnull readnone align 8 captures(none) dereferenceable(40) %0, ptr noundef nonnull readonly align 8 captures(none) dereferenceable(32) %1) local_unnamed_addr #5 align 2 personality ptr @__gxx_personality_v0 {
  %3 = alloca %"class.base::FilePath", align 8
  call void @llvm.lifetime.start.p0(i64 32, ptr nonnull %3) #22
  call void @_ZN4base8FilePathC1Ev(ptr noundef nonnull align 8 dereferenceable(32) %3)
  %4 = invoke noundef zeroext i1 @_ZN4base12SharedMemory21FilePathForMemoryNameERKNSt7__cxx1112basic_stringIcSt11char_traitsIcESaIcEEEPNS_8FilePathE(ptr nonnull align 8 poison, ptr noundef nonnull align 8 dereferenceable(32) %1, ptr noundef nonnull %3)
          to label %5 unwind label %6

5:                                                ; preds = %2
  br i1 %4, label %8, label %13

6:                                                ; preds = %11, %8, %2
  %7 = landingpad { ptr, i32 }
          cleanup
  call void @_ZN4base8FilePathD1Ev(ptr noundef nonnull align 8 dereferenceable(32) %3) #22
  call void @llvm.lifetime.end.p0(i64 32, ptr nonnull %3) #22
  resume { ptr, i32 } %7

8:                                                ; preds = %5
  %9 = invoke noundef zeroext i1 @_ZN4base10PathExistsERKNS_8FilePathE(ptr noundef nonnull align 8 dereferenceable(32) %3)
          to label %10 unwind label %6

10:                                               ; preds = %8
  br i1 %9, label %11, label %13

11:                                               ; preds = %10
  %12 = invoke noundef zeroext i1 @_ZN4base10DeleteFileERKNS_8FilePathEb(ptr noundef nonnull align 8 dereferenceable(32) %3, i1 noundef zeroext false)
          to label %13 unwind label %6

13:                                               ; preds = %10, %11, %5
  %.0 = phi i1 [ false, %5 ], [ %12, %11 ], [ true, %10 ]
  call void @_ZN4base8FilePathD1Ev(ptr noundef nonnull align 8 dereferenceable(32) %3) #22
  call void @llvm.lifetime.end.p0(i64 32, ptr nonnull %3) #22
  ret i1 %.0
}